

Microchip Technology PIC18 LITE Macro Assembler V1.34 build -361300703 
                                                                                               Wed Jul 15 17:06:12 2015

Microchip Technology Omniscient Code Generator (Lite mode) build 201502162209
     1                           	processor	18F13K22
     2                           	fnconf	rparam,??,?,0
     3                           	opt	pw 120
     4                           	opt	lm
     5                           	psect	text0,global,reloc=2,class=CODE,delta=1
     6                           	psect	cinit,global,reloc=2,class=CODE,delta=1
     7                           	psect	bssCOMRAM,global,class=COMRAM,space=1,delta=1
     8                           	psect	cstackCOMRAM,global,class=COMRAM,space=1,delta=1
     9                           	psect	text1,global,reloc=2,class=CODE,delta=1
    10                           	psect	text2,global,reloc=2,class=CODE,delta=1
    11                           	psect	intcode,global,reloc=2,class=CODE,delta=1
    12                           	psect	text4,global,reloc=2,class=CODE,delta=1
    13                           	psect	intsave_regs,global,class=BIGRAM,space=1,delta=1
    14                           	psect	rparam,global,class=COMRAM,space=1,delta=1
    15  0000                     _TMR3	set	4018
    16  0000                     _ANSELHbits	set	3967
    17  0000                     _BAUDCON	set	4024
    18  0000                     _INTCONbits	set	4082
    19  0000                     _LATBbits	set	3978
    20  0000                     _PIR2bits	set	4001
    21  0000                     _PORTCbits	set	3970
    22  0000                     _RCREG	set	4014
    23  0000                     _RCSTA	set	4011
    24  0000                     _RCSTAbits	set	4011
    25  0000                     _SPBRG	set	4015
    26  0000                     _SPBRGH	set	4016
    27  0000                     _T0CONbits	set	4053
    28  0000                     _T3CONbits	set	4017
    29  0000                     _TMR0H	set	4055
    30  0000                     _TMR0L	set	4054
    31  0000                     _TRISBbits	set	3987
    32  0000                     _TRISCbits	set	3988
    33  0000                     _TXREG	set	4013
    34  0000                     _TXSTA	set	4012
    35  0000                     _TXSTAbits	set	4012
    36  0000                     _RCIF	set	31989
    37                           
    38 ;;
    39 ;;Main: autosize = 0, tempsize = 1, incstack = 0, save=0
    40 ;;
    41 ;; *************** function _main *****************
    42 ;; Defined at:
    43 ;;		line 58 in file "main.c"
    44 ;; Parameters:    Size  Location     Type
    45 ;;		None
    46 ;; Auto vars:     Size  Location     Type
    47 ;;  data           17    0        struct receiveBuffer
    48 ;;  i               2   28[COMRAM] int 
    49 ;; Return value:  Size  Location     Type
    50 ;;                  2   20[None  ] int 
    51 ;; Registers used:
    52 ;;		wreg, status,2, status,0, cstack
    53 ;; Tracked objects:
    54 ;;		On entry : 0/0
    55 ;;		On exit  : 0/0
    56 ;;		Unchanged: 0/0
    57 ;; Data sizes:     COMRAM   BANK0
    58 ;;      Params:         0       0
    59 ;;      Locals:         2       0
    60 ;;      Temps:          1       0
    61 ;;      Totals:         3       0
    62 ;;Total ram usage:        3 bytes
    63 ;; Hardware stack levels required when called:    4
    64 ;; This function calls:
    65 ;;		_serialSetUp
    66 ;; This function is called by:
    67 ;;		Startup code after reset
    68 ;; This function uses a non-reentrant model
    69 ;;
    70                           
    71                           	psect	text0
    72  0000FA                     __ptext0:
    73                           	opt stack 0
    74  0000FA                     _main:
    75                           	opt stack 27
    76                           
    77                           ;main.c: 59: _delay((unsigned long)((1)*(20000000/4000.0)));
    78                           
    79                           ;incstack = 0
    80  0000FA  0E07               	movlw	7
    81  0000FC  6E1C               	movwf	??_main& (0+255),c
    82  0000FE  0E7D               	movlw	125
    83  000100                     u287:
    84  000100  2EE8               	decfsz	wreg,f,c
    85  000102  D7FE               	goto	u287
    86  000104  2E1C               	decfsz	??_main& (0+255),f,c
    87  000106  D7FC               	goto	u287
    88  000108  F000               	nop	
    89                           
    90                           ;main.c: 60: serialSetUp(1, 1, 0x81);
    91  00010A  0E01               	movlw	1
    92  00010C  6E14               	movwf	serialSetUp@brgh_bit,c
    93  00010E  0E00               	movlw	0
    94  000110  6E16               	movwf	serialSetUp@spbrg16+1,c
    95  000112  0E81               	movlw	129
    96  000114  6E15               	movwf	serialSetUp@spbrg16,c
    97  000116  0E01               	movlw	1
    98  000118  EC4B  F000         	call	_serialSetUp
    99                           
   100                           ;main.c: 62: T0CONbits.PSA = 1;
   101  00011C  86D5               	bsf	4053,3,c	;volatile
   102                           
   103                           ;main.c: 63: T0CONbits.T0PS = 0x06;
   104  00011E  50D5               	movf	4053,w,c	;volatile
   105  000120  0BF8               	andlw	-8
   106  000122  0906               	iorlw	6
   107  000124  6ED5               	movwf	4053,c	;volatile
   108                           
   109                           ;main.c: 64: T0CONbits.T0CS = 0;
   110  000126  9AD5               	bcf	4053,5,c	;volatile
   111                           
   112                           ;main.c: 65: T0CONbits.T08BIT = 0;
   113  000128  9CD5               	bcf	4053,6,c	;volatile
   114                           
   115                           ;main.c: 66: INTCONbits.TMR0IE = 1;
   116  00012A  8AF2               	bsf	intcon,5,c	;volatile
   117                           
   118                           ;main.c: 67: INTCONbits.GIE = 1;
   119  00012C  8EF2               	bsf	intcon,7,c	;volatile
   120                           
   121                           ;main.c: 68: TMR0H = 65 >> 8;
   122  00012E  0E00               	movlw	0
   123  000130  6ED7               	movwf	4055,c	;volatile
   124                           
   125                           ;main.c: 69: TMR0L = 65;
   126  000132  0E41               	movlw	65
   127  000134  6ED6               	movwf	4054,c	;volatile
   128                           
   129                           ;main.c: 70: T0CONbits.TMR0ON = 1;
   130  000136  8ED5               	bsf	4053,7,c	;volatile
   131                           
   132                           ;main.c: 74: struct receiveBuffer data;
   133                           ;main.c: 75: int i = 0;
   134  000138  0E00               	movlw	0
   135  00013A  6E1E               	movwf	main@i+1,c
   136  00013C  0E00               	movlw	0
   137  00013E  6E1D               	movwf	main@i,c
   138  000140  D7FF               	goto	l22
   139                           
   140                           ;main.c: 83: }
   141                           ;main.c: 84: return (0);
   142                           ;	Return value of _main is never used
   143  000142  EF49  F000         	goto	start
   144  000146                     __end_of_main:
   145                           	opt stack 0
   146                           intcon	equ	0xFF2
   147                           wreg	equ	0xFE8
   148                           
   149                           	psect	cinit
   150  000180                     __pcinit:
   151                           	opt stack 0
   152  000180                     start_initialization:
   153                           	opt stack 0
   154  000180                     __initialization:
   155                           	opt stack 0
   156                           
   157                           ; Clear objects allocated to COMRAM (2 bytes)
   158  000180  6A20               	clrf	(__pbssCOMRAM+1)& (0+255),c
   159  000182  6A1F               	clrf	__pbssCOMRAM& (0+255),c
   160  000184                     end_of_initialization:
   161                           	opt stack 0
   162  000184                     __end_of__initialization:
   163                           	opt stack 0
   164  000184  0100               	movlb	0
   165  000186  EF7D  F000         	goto	_main	;jump to C main() function
   166                           intcon	equ	0xFF2
   167                           wreg	equ	0xFE8
   168                           
   169                           	psect	bssCOMRAM
   170  00001F                     __pbssCOMRAM:
   171                           	opt stack 0
   172  00001F                     _timer3Time:
   173                           	opt stack 0
   174  00001F                     	ds	2
   175                           intcon	equ	0xFF2
   176                           wreg	equ	0xFE8
   177                           
   178                           	psect	cstackCOMRAM
   179  000001                     __pcstackCOMRAM:
   180                           	opt stack 0
   181  000001                     sendChar@character:
   182                           	opt stack 0
   183                           
   184                           ; 1 bytes @ 0x0
   185  000001                     	ds	1
   186  000002                     ??_com_link:
   187                           
   188                           ; 0 bytes @ 0x1
   189  000002                     	ds	14
   190  000010                     setTimer3@TMR3Pair:
   191                           	opt stack 0
   192                           
   193                           ; 2 bytes @ 0xF
   194  000010                     	ds	2
   195  000012                     ??_setTimer3:
   196                           
   197                           ; 0 bytes @ 0x11
   198  000012                     	ds	1
   199  000013                     setTimer3@turnOn:
   200                           	opt stack 0
   201                           
   202                           ; 1 bytes @ 0x12
   203  000013                     	ds	1
   204  000014                     serialSetUp@brgh_bit:
   205                           	opt stack 0
   206                           
   207                           ; 1 bytes @ 0x13
   208  000014                     	ds	1
   209  000015                     serialSetUp@spbrg16:
   210                           	opt stack 0
   211                           
   212                           ; 2 bytes @ 0x14
   213  000015                     	ds	2
   214  000017                     serialSetUp@brg16_bit:
   215                           	opt stack 0
   216                           
   217                           ; 1 bytes @ 0x16
   218  000017                     	ds	1
   219  000018                     _serialSetUp$715:
   220                           	opt stack 0
   221                           
   222                           ; 2 bytes @ 0x17
   223  000018                     	ds	2
   224  00001A                     _serialSetUp$716:
   225                           	opt stack 0
   226                           
   227                           ; 2 bytes @ 0x19
   228  00001A                     	ds	2
   229  00001C                     ??_main:
   230                           
   231                           ; 0 bytes @ 0x1B
   232  00001C                     	ds	1
   233  00001D                     main@i:
   234                           	opt stack 0
   235                           
   236                           ; 2 bytes @ 0x1C
   237  00001D                     	ds	2
   238                           intcon	equ	0xFF2
   239                           wreg	equ	0xFE8
   240                           
   241 ;; *************** function _serialSetUp *****************
   242 ;; Defined at:
   243 ;;		line 23 in file "serialprotocol.c"
   244 ;; Parameters:    Size  Location     Type
   245 ;;  brg16_bit       1    wreg     unsigned char 
   246 ;;  brgh_bit        1   19[COMRAM] unsigned char 
   247 ;;  spbrg16         2   20[COMRAM] unsigned int 
   248 ;; Auto vars:     Size  Location     Type
   249 ;;  brg16_bit       1   22[COMRAM] unsigned char 
   250 ;; Return value:  Size  Location     Type
   251 ;;		None               void
   252 ;; Registers used:
   253 ;;		wreg, status,2, status,0, cstack
   254 ;; Tracked objects:
   255 ;;		On entry : 0/0
   256 ;;		On exit  : 0/0
   257 ;;		Unchanged: 0/0
   258 ;; Data sizes:     COMRAM   BANK0
   259 ;;      Params:         3       0
   260 ;;      Locals:         5       0
   261 ;;      Temps:          0       0
   262 ;;      Totals:         8       0
   263 ;;Total ram usage:        8 bytes
   264 ;; Hardware stack levels used:    1
   265 ;; Hardware stack levels required when called:    3
   266 ;; This function calls:
   267 ;;		_setTimer3
   268 ;; This function is called by:
   269 ;;		_main
   270 ;; This function uses a non-reentrant model
   271 ;;
   272                           
   273                           	psect	text1
   274  000096                     __ptext1:
   275                           	opt stack 0
   276  000096                     _serialSetUp:
   277                           	opt stack 27
   278                           
   279                           ;incstack = 0
   280                           ;serialSetUp@brg16_bit stored from wreg
   281  000096  6E17               	movwf	serialSetUp@brg16_bit,c
   282                           
   283                           ;serialprotocol.c: 26: ANSELHbits.ANS9 = 0;
   284  000098  927F               	bcf	3967,1,c	;volatile
   285                           
   286                           ;serialprotocol.c: 27: ANSELHbits.ANS11 = 0;
   287  00009A  967F               	bcf	3967,3,c	;volatile
   288                           
   289                           ;serialprotocol.c: 29: TRISBbits.RB5 = 1;
   290  00009C  8A93               	bsf	3987,5,c	;volatile
   291                           
   292                           ;serialprotocol.c: 30: TRISBbits.RB7 = 0;
   293  00009E  9E93               	bcf	3987,7,c	;volatile
   294                           
   295                           ;serialprotocol.c: 31: TRISBbits.RB6 = 0;
   296  0000A0  9C93               	bcf	3987,6,c	;volatile
   297                           
   298                           ;serialprotocol.c: 32: TRISCbits.RC7 = 1;
   299  0000A2  8E94               	bsf	3988,7,c	;volatile
   300                           
   301                           ;serialprotocol.c: 34: BAUDCON = (brg16_bit) ? 0x08 : 0x00;
   302  0000A4  5017               	movf	serialSetUp@brg16_bit,w,c
   303  0000A6  A4D8               	btfss	status,2,c
   304  0000A8  D004               	goto	l830
   305  0000AA  0E00               	movlw	0
   306  0000AC  6E19               	movwf	_serialSetUp$715+1,c
   307  0000AE  0E00               	movlw	0
   308  0000B0  D003               	goto	L1
   309  0000B2                     l830:
   310  0000B2  0E00               	movlw	0
   311  0000B4  6E19               	movwf	_serialSetUp$715+1,c
   312  0000B6  0E08               	movlw	8
   313  0000B8                     L1:
   314  0000B8  6E18               	movwf	_serialSetUp$715,c
   315  0000BA  D000               	goto	l832
   316  0000BC                     l832:
   317  0000BC  C018  FFB8         	movff	_serialSetUp$715,4024	;volatile
   318                           
   319                           ;serialprotocol.c: 35: TXSTA = (brgh_bit) ? 0x24: 0x20;
   320  0000C0  5014               	movf	serialSetUp@brgh_bit,w,c
   321  0000C2  A4D8               	btfss	status,2,c
   322  0000C4  D004               	goto	l838
   323  0000C6  0E00               	movlw	0
   324  0000C8  6E1B               	movwf	_serialSetUp$716+1,c
   325  0000CA  0E20               	movlw	32
   326  0000CC  D003               	goto	L2
   327  0000CE                     l838:
   328  0000CE  0E00               	movlw	0
   329  0000D0  6E1B               	movwf	_serialSetUp$716+1,c
   330  0000D2  0E24               	movlw	36
   331  0000D4                     L2:
   332  0000D4  6E1A               	movwf	_serialSetUp$716,c
   333  0000D6  D000               	goto	l840
   334  0000D8                     l840:
   335  0000D8  C01A  FFAC         	movff	_serialSetUp$716,4012	;volatile
   336                           
   337                           ;serialprotocol.c: 36: SPBRGH = spbrg16 >> 8;
   338  0000DC  5016               	movf	serialSetUp@spbrg16+1,w,c
   339  0000DE  6EB0               	movwf	4016,c	;volatile
   340                           
   341                           ;serialprotocol.c: 37: SPBRG = spbrg16;
   342  0000E0  C015  FFAF         	movff	serialSetUp@spbrg16,4015	;volatile
   343                           
   344                           ;serialprotocol.c: 38: RCSTA = 0x90;
   345  0000E4  0E90               	movlw	144
   346  0000E6  6EAB               	movwf	4011,c	;volatile
   347                           
   348                           ;serialprotocol.c: 40: setTimer3(0x00, 65360);
   349  0000E8  0EFF               	movlw	255
   350  0000EA  6E11               	movwf	setTimer3@TMR3Pair+1,c
   351  0000EC  0E50               	movlw	80
   352  0000EE  6E10               	movwf	setTimer3@TMR3Pair,c
   353  0000F0  0E00               	movlw	0
   354  0000F2  ECA3  F000         	call	_setTimer3
   355                           
   356                           ;serialprotocol.c: 42: LATBbits.LATB6 = 1;
   357  0000F6  8C8A               	bsf	3978,6,c	;volatile
   358  0000F8  0012               	return		;funcret
   359  0000FA                     __end_of_serialSetUp:
   360                           	opt stack 0
   361                           intcon	equ	0xFF2
   362                           wreg	equ	0xFE8
   363                           status	equ	0xFD8
   364                           
   365 ;; *************** function _setTimer3 *****************
   366 ;; Defined at:
   367 ;;		line 5 in file "serialprotocol.c"
   368 ;; Parameters:    Size  Location     Type
   369 ;;  turnOn          1    wreg     unsigned char 
   370 ;;  TMR3Pair        2   15[COMRAM] unsigned int 
   371 ;; Auto vars:     Size  Location     Type
   372 ;;  turnOn          1   18[COMRAM] unsigned char 
   373 ;; Return value:  Size  Location     Type
   374 ;;		None               void
   375 ;; Registers used:
   376 ;;		wreg, status,2, status,0
   377 ;; Tracked objects:
   378 ;;		On entry : 0/0
   379 ;;		On exit  : 0/0
   380 ;;		Unchanged: 0/0
   381 ;; Data sizes:     COMRAM   BANK0
   382 ;;      Params:         2       0
   383 ;;      Locals:         1       0
   384 ;;      Temps:          1       0
   385 ;;      Totals:         4       0
   386 ;;Total ram usage:        4 bytes
   387 ;; Hardware stack levels used:    1
   388 ;; Hardware stack levels required when called:    2
   389 ;; This function calls:
   390 ;;		Nothing
   391 ;; This function is called by:
   392 ;;		_serialSetUp
   393 ;; This function uses a non-reentrant model
   394 ;;
   395                           
   396                           	psect	text2
   397  000146                     __ptext2:
   398                           	opt stack 0
   399  000146                     _setTimer3:
   400                           	opt stack 27
   401                           
   402                           ;incstack = 0
   403                           ;setTimer3@turnOn stored from wreg
   404  000146  6E13               	movwf	setTimer3@turnOn,c
   405                           
   406                           ;serialprotocol.c: 6: T3CONbits.RD16 = 0x01;
   407  000148  8EB1               	bsf	4017,7,c	;volatile
   408                           
   409                           ;serialprotocol.c: 7: T3CONbits.T3CKPS = 0x00;
   410  00014A  0ECF               	movlw	-49
   411  00014C  16B1               	andwf	4017,f,c	;volatile
   412                           
   413                           ;serialprotocol.c: 8: T3CONbits.TMR3CS = 0x00;
   414  00014E  92B1               	bcf	4017,1,c	;volatile
   415                           
   416                           ;serialprotocol.c: 9: T3CONbits.TMR3ON = (turnOn) ? 1 : 0;
   417  000150  5013               	movf	setTimer3@turnOn,w,c
   418  000152  B4D8               	btfsc	status,2,c
   419  000154  D003               	goto	u240
   420  000156  6A12               	clrf	??_setTimer3& (0+255),c
   421  000158  2A12               	incf	??_setTimer3& (0+255),f,c
   422  00015A  D001               	goto	u258
   423  00015C                     u240:
   424  00015C  6A12               	clrf	??_setTimer3& (0+255),c
   425  00015E                     u258:
   426  00015E  50B1               	movf	4017,w,c	;volatile
   427  000160  1812               	xorwf	??_setTimer3,w,c
   428  000162  0BFE               	andlw	-2
   429  000164  1812               	xorwf	??_setTimer3,w,c
   430  000166  6EB1               	movwf	4017,c	;volatile
   431                           
   432                           ;serialprotocol.c: 10: timer3Time = TMR3Pair;
   433  000168  C010  F01F         	movff	setTimer3@TMR3Pair,_timer3Time
   434  00016C  C011  F020         	movff	setTimer3@TMR3Pair+1,_timer3Time+1
   435  000170  0012               	return		;funcret
   436  000172                     __end_of_setTimer3:
   437                           	opt stack 0
   438                           intcon	equ	0xFF2
   439                           wreg	equ	0xFE8
   440                           status	equ	0xFD8
   441                           
   442 ;; *************** function _com_link *****************
   443 ;; Defined at:
   444 ;;		line 46 in file "main.c"
   445 ;; Parameters:    Size  Location     Type
   446 ;;		None
   447 ;; Auto vars:     Size  Location     Type
   448 ;;		None
   449 ;; Return value:  Size  Location     Type
   450 ;;		None               void
   451 ;; Registers used:
   452 ;;		wreg, status,2, cstack
   453 ;; Tracked objects:
   454 ;;		On entry : 0/0
   455 ;;		On exit  : 0/0
   456 ;;		Unchanged: 0/0
   457 ;; Data sizes:     COMRAM   BANK0
   458 ;;      Params:         0       0
   459 ;;      Locals:         0       0
   460 ;;      Temps:         14       0
   461 ;;      Totals:        14       0
   462 ;;Total ram usage:       14 bytes
   463 ;; Hardware stack levels used:    1
   464 ;; Hardware stack levels required when called:    1
   465 ;; This function calls:
   466 ;;		_sendChar
   467 ;; This function is called by:
   468 ;;		Interrupt level 2
   469 ;; This function uses a non-reentrant model
   470 ;;
   471                           
   472                           	psect	intcode
   473  000008                     __pintcode:
   474                           	opt stack 0
   475  000008                     _com_link:
   476                           	opt stack 27
   477                           
   478                           ;incstack = 0
   479  000008  CFFA F002          	movff	pclath,??_com_link
   480  00000C  CFFB F003          	movff	pclatu,??_com_link+1
   481  000010  CFE9 F004          	movff	fsr0l,??_com_link+2
   482  000014  CFEA F005          	movff	fsr0h,??_com_link+3
   483  000018  CFE1 F006          	movff	fsr1l,??_com_link+4
   484  00001C  CFE2 F007          	movff	fsr1h,??_com_link+5
   485  000020  CFD9 F008          	movff	fsr2l,??_com_link+6
   486  000024  CFDA F009          	movff	fsr2h,??_com_link+7
   487  000028  CFF3 F00A          	movff	prodl,??_com_link+8
   488  00002C  CFF4 F00B          	movff	prodh,??_com_link+9
   489  000030  CFF6 F00C          	movff	tblptrl,??_com_link+10
   490  000034  CFF7 F00D          	movff	tblptrh,??_com_link+11
   491  000038  CFF8 F00E          	movff	tblptru,??_com_link+12
   492  00003C  CFF5 F00F          	movff	tablat,??_com_link+13
   493                           
   494                           ;main.c: 48: if (INTCONbits.TMR0IF && INTCONbits.TMR0IE){
   495  000040  B4F2               	btfsc	intcon,2,c	;volatile
   496  000042  AAF2               	btfss	intcon,5,c	;volatile
   497  000044  D009               	goto	i2l18
   498                           
   499                           ;main.c: 49: TMR0H = 65 >> 8;
   500  000046  0E00               	movlw	0
   501  000048  6ED7               	movwf	4055,c	;volatile
   502                           
   503                           ;main.c: 50: TMR0L = 65;
   504  00004A  0E41               	movlw	65
   505  00004C  6ED6               	movwf	4054,c	;volatile
   506                           
   507                           ;main.c: 51: INTCONbits.TMR0IF = 0;
   508  00004E  94F2               	bcf	intcon,2,c	;volatile
   509                           
   510                           ;main.c: 52: sendChar(0x55);
   511  000050  0E55               	movlw	85
   512  000052  ECB9  F000         	call	_sendChar
   513  000056  D000               	goto	i2l18
   514  000058                     i2l18:
   515  000058  C00F  FFF5         	movff	??_com_link+13,tablat
   516  00005C  C00E  FFF8         	movff	??_com_link+12,tblptru
   517  000060  C00D  FFF7         	movff	??_com_link+11,tblptrh
   518  000064  C00C  FFF6         	movff	??_com_link+10,tblptrl
   519  000068  C00B  FFF4         	movff	??_com_link+9,prodh
   520  00006C  C00A  FFF3         	movff	??_com_link+8,prodl
   521  000070  C009  FFDA         	movff	??_com_link+7,fsr2h
   522  000074  C008  FFD9         	movff	??_com_link+6,fsr2l
   523  000078  C007  FFE2         	movff	??_com_link+5,fsr1h
   524  00007C  C006  FFE1         	movff	??_com_link+4,fsr1l
   525  000080  C005  FFEA         	movff	??_com_link+3,fsr0h
   526  000084  C004  FFE9         	movff	??_com_link+2,fsr0l
   527  000088  C003  FFFB         	movff	??_com_link+1,pclatu
   528  00008C  C002  FFFA         	movff	??_com_link,pclath
   529  000090  0011               	retfie		f
   530  000092                     __end_of_com_link:
   531                           	opt stack 0
   532                           pclatu	equ	0xFFB
   533                           pclath	equ	0xFFA
   534                           tblptru	equ	0xFF8
   535                           tblptrh	equ	0xFF7
   536                           tblptrl	equ	0xFF6
   537                           tablat	equ	0xFF5
   538                           prodh	equ	0xFF4
   539                           prodl	equ	0xFF3
   540                           intcon	equ	0xFF2
   541                           fsr0h	equ	0xFEA
   542                           fsr0l	equ	0xFE9
   543                           wreg	equ	0xFE8
   544                           fsr1h	equ	0xFE2
   545                           fsr1l	equ	0xFE1
   546                           fsr2h	equ	0xFDA
   547                           fsr2l	equ	0xFD9
   548                           status	equ	0xFD8
   549                           
   550 ;; *************** function _sendChar *****************
   551 ;; Defined at:
   552 ;;		line 60 in file "serialprotocol.c"
   553 ;; Parameters:    Size  Location     Type
   554 ;;  character       1    wreg     unsigned char 
   555 ;; Auto vars:     Size  Location     Type
   556 ;;  character       1    0[COMRAM] unsigned char 
   557 ;; Return value:  Size  Location     Type
   558 ;;		None               void
   559 ;; Registers used:
   560 ;;		wreg
   561 ;; Tracked objects:
   562 ;;		On entry : 0/0
   563 ;;		On exit  : 0/0
   564 ;;		Unchanged: 0/0
   565 ;; Data sizes:     COMRAM   BANK0
   566 ;;      Params:         0       0
   567 ;;      Locals:         1       0
   568 ;;      Temps:          0       0
   569 ;;      Totals:         1       0
   570 ;;Total ram usage:        1 bytes
   571 ;; Hardware stack levels used:    1
   572 ;; This function calls:
   573 ;;		Nothing
   574 ;; This function is called by:
   575 ;;		_com_link
   576 ;;		_sendData
   577 ;; This function uses a non-reentrant model
   578 ;;
   579                           
   580                           	psect	text4
   581  000172                     __ptext4:
   582                           	opt stack 0
   583  000172                     _sendChar:
   584                           	opt stack 27
   585                           
   586                           ;incstack = 0
   587                           ;sendChar@character stored from wreg
   588  000172  6E01               	movwf	sendChar@character,c
   589                           
   590                           ;serialprotocol.c: 62: while(!TXSTAbits.TRMT);
   591  000174  D000               	goto	i2l93
   592  000176                     i2l93:
   593  000176  A2AC               	btfss	4012,1,c	;volatile
   594  000178  D7FE               	goto	i2l93
   595                           
   596                           ;serialprotocol.c: 63: TXREG = character;
   597  00017A  C001  FFAD         	movff	sendChar@character,4013	;volatile
   598  00017E  0012               	return		;funcret
   599  000180                     __end_of_sendChar:
   600                           	opt stack 0
   601  0000                     pclatu	equ	0xFFB
   602                           pclath	equ	0xFFA
   603                           tblptru	equ	0xFF8
   604                           tblptrh	equ	0xFF7
   605                           tblptrl	equ	0xFF6
   606                           tablat	equ	0xFF5
   607                           prodh	equ	0xFF4
   608                           prodl	equ	0xFF3
   609                           intcon	equ	0xFF2
   610                           fsr0h	equ	0xFEA
   611                           fsr0l	equ	0xFE9
   612                           wreg	equ	0xFE8
   613                           fsr1h	equ	0xFE2
   614                           fsr1l	equ	0xFE1
   615                           fsr2h	equ	0xFDA
   616                           fsr2l	equ	0xFD9
   617                           status	equ	0xFD8
   618                           pclatu	equ	0xFFB
   619                           pclath	equ	0xFFA
   620                           tblptru	equ	0xFF8
   621                           tblptrh	equ	0xFF7
   622                           tblptrl	equ	0xFF6
   623                           tablat	equ	0xFF5
   624                           prodh	equ	0xFF4
   625                           prodl	equ	0xFF3
   626                           intcon	equ	0xFF2
   627                           fsr0h	equ	0xFEA
   628                           fsr0l	equ	0xFE9
   629                           wreg	equ	0xFE8
   630                           fsr1h	equ	0xFE2
   631                           fsr1l	equ	0xFE1
   632                           fsr2h	equ	0xFDA
   633                           fsr2l	equ	0xFD9
   634                           status	equ	0xFD8
   635                           
   636                           	psect	rparam
   637  0000                     pclatu	equ	0xFFB
   638                           pclath	equ	0xFFA
   639                           tblptru	equ	0xFF8
   640                           tblptrh	equ	0xFF7
   641                           tblptrl	equ	0xFF6
   642                           tablat	equ	0xFF5
   643                           prodh	equ	0xFF4
   644                           prodl	equ	0xFF3
   645                           intcon	equ	0xFF2
   646                           fsr0h	equ	0xFEA
   647                           fsr0l	equ	0xFE9
   648                           wreg	equ	0xFE8
   649                           fsr1h	equ	0xFE2
   650                           fsr1l	equ	0xFE1
   651                           fsr2h	equ	0xFDA
   652                           fsr2l	equ	0xFD9
   653                           status	equ	0xFD8


Data Sizes:
    Strings     0
    Constant    0
    Data        0
    BSS         2
    Persistent  0
    Stack       0

Auto Spaces:
    Space          Size  Autos    Used
    COMRAM           95     30      32
    BANK0           160      0       0

Pointer List with Targets:

    None.

Critical Paths under _main in COMRAM

    _main->_serialSetUp
    _serialSetUp->_setTimer3

Critical Paths under _com_link in COMRAM

    _com_link->_sendChar

Critical Paths under _main in BANK0

    None.

Critical Paths under _com_link in BANK0

    None.

Call Graph Tables:

 ---------------------------------------------------------------------------------
 (Depth) Function   	        Calls       Base Space   Used Autos Params    Refs
 ---------------------------------------------------------------------------------
 (0) _main                                                20    20      0     310
                                             27 COMRAM     3     3      0
                        _serialSetUp
 ---------------------------------------------------------------------------------
 (1) _serialSetUp                                          8     5      3     309
                                             19 COMRAM     8     5      3
                          _setTimer3
 ---------------------------------------------------------------------------------
 (2) _setTimer3                                            4     2      2      87
                                             15 COMRAM     4     2      2
 ---------------------------------------------------------------------------------
 Estimated maximum stack depth 2
 ---------------------------------------------------------------------------------
 (Depth) Function   	        Calls       Base Space   Used Autos Params    Refs
 ---------------------------------------------------------------------------------
 (3) _com_link                                            14    14      0      15
                                              1 COMRAM    14    14      0
                           _sendChar
 ---------------------------------------------------------------------------------
 (4) _sendChar                                             1     1      0      15
                                              0 COMRAM     1     1      0
 ---------------------------------------------------------------------------------
 Estimated maximum stack depth 4
 ---------------------------------------------------------------------------------

 Call Graph Graphs:

 _main (ROOT)
   _serialSetUp
     _setTimer3

 _com_link (ROOT)
   _sendChar

 Address spaces:
Name               Size   Autos  Total    Cost      Usage
EEDATA             100      0       0       0        0.0%
BIGRAM              FF      0       0       6        0.0%
BITBANK0            A0      0       0       5        0.0%
BANK0               A0      0       0       3        0.0%
BITCOMRAM           5F      0       0       0        0.0%
COMRAM              5F     1E      20       1       33.7%
BITSFR               0      0       0      40        0.0%
SFR                  0      0       0      40        0.0%
STACK                0      0       0       2        0.0%
NULL                 0      0       0       0        0.0%
ABS                  0      0      20       4        0.0%
DATA                 0      0      20       7        0.0%
CODE                 0      0       0       0        0.0%


Microchip Technology PIC18 Macro Assembler V1.34 build -361300703 
Symbol Table                                                                                   Wed Jul 15 17:06:12 2015

                     l22 0140     serialSetUp@brg16_bit 0017                      l830 00B2  
                    l840 00D8                      l832 00BC                      l838 00CE  
                    u240 015C                      u258 015E                      u287 0100  
           __CFG_BORV$19 000000      serialSetUp@brgh_bit 0014       serialSetUp@spbrg16 0015  
                    wreg 000FE8             __CFG_FOSC$HS 000000             __CFG_LVP$OFF 000000  
                   _RCIF 007CF5                     i2l18 0058                     i2l93 0176  
                   _TMR3 000FB2                     _main 00FA                     fsr0h 000FEA  
                   fsr1h 000FE2                     fsr0l 000FE9                     fsr2h 000FDA  
                   fsr1l 000FE1                     fsr2l 000FD9                     pclat 000FFA  
                   prodh 000FF4                     prodl 000FF3                     start 0092  
          __CFG_IESO$OFF 000000            __CFG_MCLRE$ON 000000             ___param_bank 000010  
        setTimer3@turnOn 0013                    ?_main 0001                    _RCREG 000FAE  
         __CFG_BBSIZ$OFF 000000                    _RCSTA 000FAB                    _TMR0H 000FD7  
                  _TMR0L 000FD6                    _SPBRG 000FAF                    _TXREG 000FAD  
                  _TXSTA 000FAC           __CFG_FCMEN$OFF 000000                    main@i 001D  
                  tablat 000FF5                    status 000FD8           __CFG_HFOFST$ON 000000  
        __initialization 0180             __end_of_main 0146           __CFG_PCLKEN$ON 000000  
                 ??_main 001C            __activetblptr 000000           __CFG_PLLEN$OFF 000000  
      setTimer3@TMR3Pair 0010           __CFG_WDTEN$OFF 000000                   _SPBRGH 000FB0  
           ?_serialSetUp 0014           __CFG_XINST$OFF 000000         __end_of_com_link 0092  
         __CFG_STVREN$ON 000000         __end_of_sendChar 0180                   tblptrh 000FF7  
                 tblptrl 000FF6                   tblptru 000FF8               __accesstop 0060  
__end_of__initialization 0184            ___rparam_used 000001           __pcstackCOMRAM 0001  
     __size_of_setTimer3 002C                  _BAUDCON 000FB8                ?_com_link 0001  
              ?_sendChar 0001          __CFG_PWRTEN$OFF 000000                  __Hparam 0000  
                __Lparam 0000     __size_of_serialSetUp 0064                  __pcinit 0180  
                __ramtop 0100                  __ptext0 00FA                  __ptext1 0096  
                __ptext2 0146                  __ptext4 0172                _T0CONbits 000FD5  
              _T3CONbits 000FB1               ??_com_link 0002     end_of_initialization 0184  
      __end_of_setTimer3 0172               ??_sendChar 0001                _RCSTAbits 000FAB  
             _timer3Time 001F                _PORTCbits 000F82                _TRISBbits 000F93  
              _TRISCbits 000F94                _TXSTAbits 000FAC      start_initialization 0180  
            __pbssCOMRAM 001F        __size_of_com_link 008A        __size_of_sendChar 000E  
              __pintcode 0008                 _LATBbits 000F8A                _setTimer3 0146  
          ??_serialSetUp 0017                 _PIR2bits 000FA1         __CFG_WDTPS$32768 000000  
             ?_setTimer3 0010                 __Hrparam 0000                 __Lrparam 0000  
     __CFG_BOREN$SBORDIS 000000      __end_of_serialSetUp 00FA               _ANSELHbits 000F7F  
               _com_link 0008            __size_of_main 004C                 _sendChar 0172  
        _serialSetUp$715 0018          _serialSetUp$716 001A               _INTCONbits 000FF2  
               intlevel2 0000              ??_setTimer3 0012              _serialSetUp 0096  
      sendChar@character 0001  
